; Function Attrs: nounwind sspstrong uwtable
define internal i64 @path_truncate(i64 noundef %0, i64 noundef %1) #0 {
  %3 = load i64, ptr @rb_cFile, align 8, !tbaa !6
  %4 = load i64, ptr @id_truncate, align 8, !tbaa !6
  %5 = load i64, ptr @id_at_path, align 8, !tbaa !6
  %6 = tail call i64 @rb_ivar_get(i64 noundef %0, i64 noundef %5) #7
  %7 = icmp eq i64 %6, 0
  %8 = and i64 %6, 7
  %9 = icmp ne i64 %8, 0
  %10 = or i1 %7, %9
  br i1 %10, label %rbimpl_RB_TYPE_P_fastpath.exit.thread.i, label %rbimpl_RB_TYPE_P_fastpath.exit.i

rbimpl_RB_TYPE_P_fastpath.exit.i:                 ; preds = %2
  %11 = inttoptr i64 %6 to ptr
  %12 = load i64, ptr %11, align 8, !tbaa !10
  %13 = and i64 %12, 31
  %14 = icmp eq i64 %13, 5
  br i1 %14, label %get_strpath.exit, label %rbimpl_RB_TYPE_P_fastpath.exit.thread.i

rbimpl_RB_TYPE_P_fastpath.exit.thread.i:          ; preds = %rbimpl_RB_TYPE_P_fastpath.exit.i, %2
  %15 = load i64, ptr @rb_eTypeError, align 8, !tbaa !6
  tail call void (i64, ptr, ...) @rb_raise(i64 noundef %15, ptr noundef nonnull @.str.91) #9
  unreachable

get_strpath.exit:                                 ; preds = %rbimpl_RB_TYPE_P_fastpath.exit.i
  %16 = tail call i64 (i64, i64, i32, ...) @rb_funcall(i64 noundef %3, i64 noundef %4, i32 noundef 2, i64 noundef %6, i64 noundef %1) #7
  ret i64 %16
}